target datalayout = "e-m:e-p270:32:32-p271:32:32-p272:64:64-i64:64-i128:128-f80:128-n8:16:32:64-S128"
target triple = "x86_64-pc-linux-gnu"

@.str.3 = private unnamed_addr constant [2 x i8] c"\0A\00", align 1
@.str.4 = private unnamed_addr constant [59 x i8] c"    miter -equiv [options] gold_name gate_name miter_name\0A\00", align 1
@.str.5 = private unnamed_addr constant [79 x i8] c"Creates a miter circuit for equivalence checking. The gold- and gate- modules\0A\00", align 1
@.str.6 = private unnamed_addr constant [78 x i8] c"must have the same interfaces. The miter circuit will have all inputs of the\0A\00", align 1
@.str.7 = private unnamed_addr constant [76 x i8] c"two source modules, prefixed with 'in_'. The miter circuit has a 'trigger'\0A\00", align 1
@.str.8 = private unnamed_addr constant [79 x i8] c"output that goes high if an output mismatch between the two source modules is\0A\00", align 1
@.str.9 = private unnamed_addr constant [11 x i8] c"detected.\0A\00", align 1
@.str.10 = private unnamed_addr constant [20 x i8] c"    -ignore_gold_x\0A\00", align 1
@.str.11 = private unnamed_addr constant [75 x i8] c"        a undef (x) bit in the gold module output will match any value in\0A\00", align 1
@.str.12 = private unnamed_addr constant [33 x i8] c"        the gate module output.\0A\00", align 1
@.str.13 = private unnamed_addr constant [19 x i8] c"    -make_outputs\0A\00", align 1
@.str.14 = private unnamed_addr constant [80 x i8] c"        also route the gold- and gate-outputs to 'gold_*' and 'gate_*' outputs\0A\00", align 1
@.str.15 = private unnamed_addr constant [31 x i8] c"        on the miter circuit.\0A\00", align 1
@.str.16 = private unnamed_addr constant [18 x i8] c"    -make_outcmp\0A\00", align 1
@.str.17 = private unnamed_addr constant [68 x i8] c"        also create a cmp_* output for each gold/gate output pair.\0A\00", align 1
@.str.18 = private unnamed_addr constant [18 x i8] c"    -make_assert\0A\00", align 1
@.str.19 = private unnamed_addr constant [76 x i8] c"        also create an 'assert' cell that checks if trigger is always low.\0A\00", align 1
@.str.20 = private unnamed_addr constant [17 x i8] c"    -make_cover\0A\00", align 1
@.str.21 = private unnamed_addr constant [68 x i8] c"        also create a 'cover' cell for each gold/gate output pair.\0A\00", align 1
@.str.22 = private unnamed_addr constant [14 x i8] c"    -flatten\0A\00", align 1
@.str.23 = private unnamed_addr constant [80 x i8] c"        call 'flatten -wb; opt_expr -keepdc -undriven;;' on the miter circuit.\0A\00", align 1
@.str.24 = private unnamed_addr constant [12 x i8] c"    -cross\0A\00", align 1
@.str.25 = private unnamed_addr constant [75 x i8] c"        allow output ports on the gold module to match input ports on the\0A\00", align 1
@.str.26 = private unnamed_addr constant [78 x i8] c"        gate module. This is useful when the gold module contains additional\0A\00", align 1
@.str.27 = private unnamed_addr constant [56 x i8] c"        logic to drive some of the gate module inputs.\0A\00", align 1
@.str.28 = private unnamed_addr constant [49 x i8] c"    miter -assert [options] module [miter_name]\0A\00", align 1
@.str.29 = private unnamed_addr constant [74 x i8] c"Creates a miter circuit for property checking. All input ports are kept,\0A\00", align 1
@.str.30 = private unnamed_addr constant [76 x i8] c"output ports are discarded. An additional output 'trigger' is created that\0A\00", align 1
@.str.31 = private unnamed_addr constant [74 x i8] c"goes high when an assert is violated. Without a miter_name, the existing\0A\00", align 1
@.str.32 = private unnamed_addr constant [21 x i8] c"module is modified.\0A\00", align 1
@.str.33 = private unnamed_addr constant [35 x i8] c"        keep module output ports.\0A\00", align 1

; Function Attrs: mustprogress uwtable
define internal void @_ZN12_GLOBAL__N_19MiterPass4helpEv(ptr noundef nonnull align 8 dereferenceable(104) %0) unnamed_addr #4 align 2 {
  %2 = alloca ptr, align 8
  store ptr %0, ptr %2, align 8
  call void (ptr, ...) @_ZN5Yosys3logEPKcz(ptr noundef @.str.3)
  call void (ptr, ...) @_ZN5Yosys3logEPKcz(ptr noundef @.str.4)
  call void (ptr, ...) @_ZN5Yosys3logEPKcz(ptr noundef @.str.3)
  call void (ptr, ...) @_ZN5Yosys3logEPKcz(ptr noundef @.str.5)
  call void (ptr, ...) @_ZN5Yosys3logEPKcz(ptr noundef @.str.6)
  call void (ptr, ...) @_ZN5Yosys3logEPKcz(ptr noundef @.str.7)
  call void (ptr, ...) @_ZN5Yosys3logEPKcz(ptr noundef @.str.8)
  call void (ptr, ...) @_ZN5Yosys3logEPKcz(ptr noundef @.str.9)
  call void (ptr, ...) @_ZN5Yosys3logEPKcz(ptr noundef @.str.3)
  call void (ptr, ...) @_ZN5Yosys3logEPKcz(ptr noundef @.str.10)
  call void (ptr, ...) @_ZN5Yosys3logEPKcz(ptr noundef @.str.11)
  call void (ptr, ...) @_ZN5Yosys3logEPKcz(ptr noundef @.str.12)
  call void (ptr, ...) @_ZN5Yosys3logEPKcz(ptr noundef @.str.3)
  call void (ptr, ...) @_ZN5Yosys3logEPKcz(ptr noundef @.str.13)
  call void (ptr, ...) @_ZN5Yosys3logEPKcz(ptr noundef @.str.14)
  call void (ptr, ...) @_ZN5Yosys3logEPKcz(ptr noundef @.str.15)
  call void (ptr, ...) @_ZN5Yosys3logEPKcz(ptr noundef @.str.3)
  call void (ptr, ...) @_ZN5Yosys3logEPKcz(ptr noundef @.str.16)
  call void (ptr, ...) @_ZN5Yosys3logEPKcz(ptr noundef @.str.17)
  call void (ptr, ...) @_ZN5Yosys3logEPKcz(ptr noundef @.str.3)
  call void (ptr, ...) @_ZN5Yosys3logEPKcz(ptr noundef @.str.18)
  call void (ptr, ...) @_ZN5Yosys3logEPKcz(ptr noundef @.str.19)
  call void (ptr, ...) @_ZN5Yosys3logEPKcz(ptr noundef @.str.3)
  call void (ptr, ...) @_ZN5Yosys3logEPKcz(ptr noundef @.str.20)
  call void (ptr, ...) @_ZN5Yosys3logEPKcz(ptr noundef @.str.21)
  call void (ptr, ...) @_ZN5Yosys3logEPKcz(ptr noundef @.str.3)
  call void (ptr, ...) @_ZN5Yosys3logEPKcz(ptr noundef @.str.22)
  call void (ptr, ...) @_ZN5Yosys3logEPKcz(ptr noundef @.str.23)
  call void (ptr, ...) @_ZN5Yosys3logEPKcz(ptr noundef @.str.3)
  call void (ptr, ...) @_ZN5Yosys3logEPKcz(ptr noundef @.str.3)
  call void (ptr, ...) @_ZN5Yosys3logEPKcz(ptr noundef @.str.24)
  call void (ptr, ...) @_ZN5Yosys3logEPKcz(ptr noundef @.str.25)
  call void (ptr, ...) @_ZN5Yosys3logEPKcz(ptr noundef @.str.26)
  call void (ptr, ...) @_ZN5Yosys3logEPKcz(ptr noundef @.str.27)
  call void (ptr, ...) @_ZN5Yosys3logEPKcz(ptr noundef @.str.3)
  call void (ptr, ...) @_ZN5Yosys3logEPKcz(ptr noundef @.str.3)
  call void (ptr, ...) @_ZN5Yosys3logEPKcz(ptr noundef @.str.28)
  call void (ptr, ...) @_ZN5Yosys3logEPKcz(ptr noundef @.str.3)
  call void (ptr, ...) @_ZN5Yosys3logEPKcz(ptr noundef @.str.29)
  call void (ptr, ...) @_ZN5Yosys3logEPKcz(ptr noundef @.str.30)
  call void (ptr, ...) @_ZN5Yosys3logEPKcz(ptr noundef @.str.31)
  call void (ptr, ...) @_ZN5Yosys3logEPKcz(ptr noundef @.str.32)
  call void (ptr, ...) @_ZN5Yosys3logEPKcz(ptr noundef @.str.3)
  call void (ptr, ...) @_ZN5Yosys3logEPKcz(ptr noundef @.str.13)
  call void (ptr, ...) @_ZN5Yosys3logEPKcz(ptr noundef @.str.33)
  call void (ptr, ...) @_ZN5Yosys3logEPKcz(ptr noundef @.str.3)
  call void (ptr, ...) @_ZN5Yosys3logEPKcz(ptr noundef @.str.22)
  call void (ptr, ...) @_ZN5Yosys3logEPKcz(ptr noundef @.str.23)
  call void (ptr, ...) @_ZN5Yosys3logEPKcz(ptr noundef @.str.3)
  ret void
}